target datalayout = "e-m:e-p270:32:32-p271:32:32-p272:64:64-i64:64-i128:128-f80:128-n8:16:32:64-S128"
target triple = "x86_64-unknown-linux-gnu"

%class.btTransform = type { %class.btMatrix3x3, %class.btVector3 }
%class.btAlignedObjectArray = type <{ %class.btAlignedAllocator, [3 x i8], i32, i32, [4 x i8], ptr, i8, [7 x i8] }>
%class.btAlignedAllocator = type { i8 }
%class.btMatrix3x3 = type { [3 x %class.btVector3] }
%class.btVector3 = type { [4 x float] }
%class.btCollisionObject = type <{ ptr, %class.btTransform, %class.btTransform, %class.btVector3, %class.btVector3, %class.btVector3, i32, float, ptr, ptr, ptr, ptr, i32, i32, i32, i32, i32, float, float, float, float, float, float, float, i32, [4 x i8], ptr, i32, i32, i32, float, float, float, i32, [4 x i8], %class.btAlignedObjectArray, i32, %class.btVector3, [4 x i8] }>

; Function Attrs: mustprogress nounwind uwtable
define linkonce_odr dso_local noundef ptr @_ZNK11btRigidBody17getCollisionShapeEv(ptr noundef nonnull align 8 dereferenceable(744) %this) #1 comdat align 2 {
entry:
  %this.addr = alloca ptr, align 8
  store ptr %this, ptr %this.addr, align 8
  %this1 = load ptr, ptr %this.addr, align 8
  %m_collisionShape = getelementptr inbounds %class.btCollisionObject, ptr %this1, i32 0, i32 9
  %0 = load ptr, ptr %m_collisionShape, align 8
  ret ptr %0
}

; Function Attrs: mustprogress uwtable
define dso_local void @_ZNK11btRigidBody7getAabbER9btVector3S1_(ptr noundef nonnull align 8 dereferenceable(744) %this, ptr noundef nonnull align 4 dereferenceable(16) %aabbMin, ptr noundef nonnull align 4 dereferenceable(16) %aabbMax) #2 align 2 {
entry:
  %this.addr = alloca ptr, align 8
  %aabbMin.addr = alloca ptr, align 8
  %aabbMax.addr = alloca ptr, align 8
  store ptr %this, ptr %this.addr, align 8
  store ptr %aabbMin, ptr %aabbMin.addr, align 8
  store ptr %aabbMax, ptr %aabbMax.addr, align 8
  %this1 = load ptr, ptr %this.addr, align 8
  %call = call noundef ptr @_ZNK11btRigidBody17getCollisionShapeEv(ptr noundef nonnull align 8 dereferenceable(744) %this1)
  %m_worldTransform = getelementptr inbounds %class.btCollisionObject, ptr %this1, i32 0, i32 1
  %0 = load ptr, ptr %aabbMin.addr, align 8
  %1 = load ptr, ptr %aabbMax.addr, align 8
  %vtable = load ptr, ptr %call, align 8
  %vfn = getelementptr inbounds ptr, ptr %vtable, i64 2
  %2 = load ptr, ptr %vfn, align 8
  call void %2(ptr noundef nonnull align 8 dereferenceable(32) %call, ptr noundef nonnull align 4 dereferenceable(64) %m_worldTransform, ptr noundef nonnull align 4 dereferenceable(16) %0, ptr noundef nonnull align 4 dereferenceable(16) %1)
  ret void
}