; Function Attrs: mustprogress uwtable
define dso_local void @_ZNK11btRigidBody7getAabbER9btVector3S1_(ptr noundef nonnull align 8 dereferenceable(744) %this, ptr noundef nonnull align 4 dereferenceable(16) %aabbMin, ptr noundef nonnull align 4 dereferenceable(16) %aabbMax) local_unnamed_addr #0 align 2 {
entry:
  %m_collisionShape.i = getelementptr inbounds i8, ptr %this, i64 200
  %0 = load ptr, ptr %m_collisionShape.i, align 8
  %m_worldTransform = getelementptr inbounds i8, ptr %this, i64 8
  %vtable = load ptr, ptr %0, align 8
  %vfn = getelementptr inbounds i8, ptr %vtable, i64 16
  %1 = load ptr, ptr %vfn, align 8
  tail call void %1(ptr noundef nonnull align 8 dereferenceable(32) %0, ptr noundef nonnull align 4 dereferenceable(64) %m_worldTransform, ptr noundef nonnull align 4 dereferenceable(16) %aabbMin, ptr noundef nonnull align 4 dereferenceable(16) %aabbMax)
  ret void
}